target datalayout = "e-m:e-p270:32:32-p271:32:32-p272:64:64-i64:64-i128:128-f80:128-n8:16:32:64-S128"
target triple = "x86_64-pc-linux-gnu"

%class.Handle = type { ptr }
%class.ThreadShadow = type <{ ptr, ptr, ptr, i32, [4 x i8] }>

; Function Attrs: mustprogress nounwind uwtable
define linkonce_odr hidden noundef ptr @_ZN13InstanceKlass4castEPK5Klass(ptr noundef %0) #1 comdat align 2 {
  %2 = alloca ptr, align 8
  store ptr %0, ptr %2, align 8
  %3 = load ptr, ptr %2, align 8
  ret ptr %3
}

; Function Attrs: mustprogress nounwind uwtable
define linkonce_odr hidden void @_ZN6HandleC2Ev(ptr noundef nonnull align 8 dereferenceable(8) %0) unnamed_addr #1 comdat align 2 {
  %2 = alloca ptr, align 8
  store ptr %0, ptr %2, align 8
  %3 = load ptr, ptr %2, align 8
  %4 = getelementptr inbounds %class.Handle, ptr %3, i32 0, i32 0
  store ptr null, ptr %4, align 8
  ret void
}

; Function Attrs: mustprogress nounwind uwtable
define linkonce_odr hidden noundef ptr @_ZN13InstanceKlass4castEP5Klass(ptr noundef %0) #1 comdat align 2 {
  %2 = alloca ptr, align 8
  store ptr %0, ptr %2, align 8
  %3 = load ptr, ptr %2, align 8
  %4 = call noundef ptr @_ZN13InstanceKlass4castEPK5Klass(ptr noundef %3)
  ret ptr %4
}

; Function Attrs: mustprogress nounwind uwtable
define linkonce_odr hidden noundef zeroext i1 @_ZNK12ThreadShadow21has_pending_exceptionEv(ptr noundef nonnull align 8 dereferenceable(28) %0) #1 comdat align 2 {
  %2 = alloca ptr, align 8
  store ptr %0, ptr %2, align 8
  %3 = load ptr, ptr %2, align 8
  %4 = getelementptr inbounds %class.ThreadShadow, ptr %3, i32 0, i32 1
  %5 = load ptr, ptr %4, align 8
  %6 = icmp ne ptr %5, null
  ret i1 %6
}

; Function Attrs: mustprogress nounwind uwtable
define linkonce_odr hidden noundef ptr @_ZN16SystemDictionary15resolve_or_failEP6SymbolbP10JavaThread(ptr noundef %0, i1 noundef zeroext %1, ptr noundef %2) #1 comdat align 2 {
  %4 = alloca ptr, align 8
  %5 = alloca i8, align 1
  %6 = alloca ptr, align 8
  %7 = alloca %class.Handle, align 8
  %8 = alloca %class.Handle, align 8
  store ptr %0, ptr %4, align 8
  %9 = zext i1 %1 to i8
  store i8 %9, ptr %5, align 1
  store ptr %2, ptr %6, align 8
  %10 = load ptr, ptr %4, align 8
  call void @_ZN6HandleC2Ev(ptr noundef nonnull align 8 dereferenceable(8) %7)
  call void @_ZN6HandleC2Ev(ptr noundef nonnull align 8 dereferenceable(8) %8)
  %11 = load i8, ptr %5, align 1
  %12 = trunc i8 %11 to i1
  %13 = load ptr, ptr %6, align 8
  %14 = getelementptr inbounds %class.Handle, ptr %7, i32 0, i32 0
  %15 = load ptr, ptr %14, align 8
  %16 = getelementptr inbounds %class.Handle, ptr %8, i32 0, i32 0
  %17 = load ptr, ptr %16, align 8
  %18 = call noundef ptr @_ZN16SystemDictionary15resolve_or_failEP6Symbol6HandleS2_bP10JavaThread(ptr noundef %10, ptr %15, ptr %17, i1 noundef zeroext %12, ptr noundef %13)
  ret ptr %18
}

; Function Attrs: mustprogress nounwind uwtable
define internal void @_ZL16initialize_classP6SymbolP10JavaThread(ptr noundef %0, ptr noundef %1) #1 {
  %3 = alloca ptr, align 8
  %4 = alloca ptr, align 8
  %5 = alloca ptr, align 8
  store ptr %0, ptr %3, align 8
  store ptr %1, ptr %4, align 8
  %6 = load ptr, ptr %3, align 8
  %7 = load ptr, ptr %4, align 8
  %8 = call noundef ptr @_ZN16SystemDictionary15resolve_or_failEP6SymbolbP10JavaThread(ptr noundef %6, i1 noundef zeroext true, ptr noundef %7)
  store ptr %8, ptr %5, align 8
  %9 = load ptr, ptr %4, align 8
  %10 = call noundef zeroext i1 @_ZNK12ThreadShadow21has_pending_exceptionEv(ptr noundef nonnull align 8 dereferenceable(28) %9)
  br i1 %10, label %11, label %12

11:                                               ; preds = %2
  br label %22

12:                                               ; preds = %2
  %13 = load ptr, ptr %5, align 8
  %14 = call noundef ptr @_ZN13InstanceKlass4castEP5Klass(ptr noundef %13)
  %15 = load ptr, ptr %4, align 8
  %16 = load ptr, ptr %14, align 8
  %17 = getelementptr inbounds ptr, ptr %16, i64 22
  %18 = load ptr, ptr %17, align 8
  call void %18(ptr noundef nonnull align 8 dereferenceable(464) %14, ptr noundef %15)
  %19 = load ptr, ptr %4, align 8
  %20 = call noundef zeroext i1 @_ZNK12ThreadShadow21has_pending_exceptionEv(ptr noundef nonnull align 8 dereferenceable(28) %19)
  br i1 %20, label %21, label %22

21:                                               ; preds = %12
  br label %22

22:                                               ; preds = %21, %12, %11
  ret void
}