; Function Attrs: mustprogress nounwind uwtable
define internal fastcc void @_ZL16initialize_classP6SymbolP10JavaThread(ptr noundef %0, ptr noundef %1) unnamed_addr #0 {
  %3 = tail call noundef ptr @_ZN16SystemDictionary15resolve_or_failEP6Symbol6HandleS2_bP10JavaThread(ptr noundef %0, ptr null, ptr null, i1 noundef zeroext true, ptr noundef %1) #15
  %4 = getelementptr inbounds i8, ptr %1, i64 8
  %5 = load ptr, ptr %4, align 8
  %.not = icmp eq ptr %5, null
  br i1 %.not, label %6, label %10

6:                                                ; preds = %2
  %7 = load ptr, ptr %3, align 8
  %8 = getelementptr inbounds i8, ptr %7, i64 176
  %9 = load ptr, ptr %8, align 8
  tail call void %9(ptr noundef nonnull align 8 dereferenceable(464) %3, ptr noundef nonnull %1) #15
  br label %10

10:                                               ; preds = %6, %2
  ret void
}